; Function Attrs: mustprogress uwtable
define noundef zeroext i1 @_ZNK5arrow7compute12RowTableImpl13has_any_nullsEPKNS0_12LightContextE(ptr noundef nonnull align 8 captures(none) dereferenceable(209) %this, ptr noundef readonly captures(none) %ctx) local_unnamed_addr #2 align 2 {
entry:
  %has_any_nulls_ = getelementptr inbounds nuw i8, ptr %this, i64 208
  %0 = load i8, ptr %has_any_nulls_, align 8
  %tobool = trunc i8 %0 to i1
  br i1 %tobool, label %return, label %if.end

if.end:                                           ; preds = %entry
  %num_rows_for_has_any_nulls_ = getelementptr inbounds nuw i8, ptr %this, i64 200
  %1 = load i64, ptr %num_rows_for_has_any_nulls_, align 8
  %num_rows_ = getelementptr inbounds nuw i8, ptr %this, i64 176
  %2 = load i64, ptr %num_rows_, align 8
  %cmp = icmp slt i64 %1, %2
  br i1 %cmp, label %if.then2, label %return

if.then2:                                         ; preds = %if.end
  %null_masks_bytes_per_row = getelementptr inbounds nuw i8, ptr %this, i64 20
  %3 = load i32, ptr %null_masks_bytes_per_row, align 4
  %4 = load i64, ptr %ctx, align 8
  %null_masks_.i = getelementptr inbounds nuw i8, ptr %this, i64 128
  %5 = load ptr, ptr %null_masks_.i, align 8
  %is_cpu_.i.i = getelementptr inbounds nuw i8, ptr %5, i64 9
  %6 = load i8, ptr %is_cpu_.i.i, align 1
  %tobool.i.i = trunc i8 %6 to i1
  %data_.i.i = getelementptr inbounds nuw i8, ptr %5, i64 16
  %7 = load ptr, ptr %data_.i.i, align 8
  %cond.i.i = select i1 %tobool.i.i, ptr %7, ptr null
  %conv = sext i32 %3 to i64
  %mul = mul nsw i64 %1, %conv
  %add.ptr = getelementptr inbounds i8, ptr %cond.i.i, i64 %mul
  %sub = sub nsw i64 %2, %1
  %8 = trunc i64 %sub to i32
  %conv9 = mul i32 %3, %8
  %call10 = tail call noundef zeroext i1 @_ZN5arrow4util8bit_util18are_all_bytes_zeroElPKhj(i64 noundef %4, ptr noundef %add.ptr, i32 noundef %conv9)
  %lnot = xor i1 %call10, true
  %frombool = zext i1 %lnot to i8
  store i8 %frombool, ptr %has_any_nulls_, align 8
  %9 = load i64, ptr %num_rows_, align 8
  store i64 %9, ptr %num_rows_for_has_any_nulls_, align 8
  br label %return

return:                                           ; preds = %if.end, %if.then2, %entry
  %retval.0 = phi i1 [ true, %entry ], [ %lnot, %if.then2 ], [ false, %if.end ]
  ret i1 %retval.0
}